; Function Attrs: mustprogress uwtable
define dso_local void @_ZN11StringUtils13get_substringERKNSt7__cxx1112basic_stringIcSt11char_traitsIcESaIcEEEcc(ptr dead_on_unwind noalias writable sret(%"class.std::__cxx11::basic_string") align 8 %0, ptr noundef nonnull align 8 dereferenceable(32) %1, i8 noundef signext %2, i8 noundef signext %3) local_unnamed_addr #5 align 2 personality ptr @__gxx_personality_v0 {
  %5 = alloca %"class.std::allocator", align 1
  %6 = alloca %"class.std::allocator", align 1
  %7 = alloca %"class.std::allocator", align 1
  %8 = tail call noundef zeroext i1 @_ZNKSt7__cxx1112basic_stringIcSt11char_traitsIcESaIcEE5emptyEv(ptr noundef nonnull align 8 dereferenceable(32) %1) #18
  br i1 %8, label %9, label %.preheader

9:                                                ; preds = %4
  call void @_ZNSaIcEC1Ev(ptr noundef nonnull align 1 dereferenceable(1) %6) #18
  invoke void @_ZNSt7__cxx1112basic_stringIcSt11char_traitsIcESaIcEEC1EPKcRKS3_(ptr noundef nonnull align 8 dereferenceable(32) %0, ptr noundef nonnull @.str.1, ptr noundef nonnull align 1 dereferenceable(1) %6)
          to label %10 unwind label %11

10:                                               ; preds = %9
  call void @_ZNSaIcED1Ev(ptr noundef nonnull align 1 dereferenceable(1) %6) #18
  br label %34

11:                                               ; preds = %9
  %12 = landingpad { ptr, i32 }
          cleanup
  br label %common.resume

.preheader:                                       ; preds = %4, %15
  %.0 = phi i64 [ %16, %15 ], [ 0, %4 ]
  %13 = tail call noundef nonnull align 1 dereferenceable(1) ptr @_ZNKSt7__cxx1112basic_stringIcSt11char_traitsIcESaIcEEixEm(ptr noundef nonnull align 8 dereferenceable(32) %1, i64 noundef %.0) #18
  %14 = load i8, ptr %13, align 1
  switch i8 %14, label %_ZN11StringUtils13ignore_spacesERKNSt7__cxx1112basic_stringIcSt11char_traitsIcESaIcEEERm.exit [
    i8 32, label %15
    i8 9, label %15
    i8 10, label %15
  ]

15:                                               ; preds = %.preheader, %.preheader, %.preheader
  %16 = add i64 %.0, 1
  br label %.preheader, !llvm.loop !5

_ZN11StringUtils13ignore_spacesERKNSt7__cxx1112basic_stringIcSt11char_traitsIcESaIcEEERm.exit: ; preds = %.preheader
  %17 = tail call noundef nonnull align 1 dereferenceable(1) ptr @_ZNKSt7__cxx1112basic_stringIcSt11char_traitsIcESaIcEEixEm(ptr noundef nonnull align 8 dereferenceable(32) %1, i64 noundef %.0) #18
  %18 = load i8, ptr %17, align 1
  %.not = icmp eq i8 %18, %2
  br i1 %.not, label %23, label %19

19:                                               ; preds = %_ZN11StringUtils13ignore_spacesERKNSt7__cxx1112basic_stringIcSt11char_traitsIcESaIcEEERm.exit
  call void @_ZNSaIcEC1Ev(ptr noundef nonnull align 1 dereferenceable(1) %7) #18
  invoke void @_ZNSt7__cxx1112basic_stringIcSt11char_traitsIcESaIcEEC1EPKcRKS3_(ptr noundef nonnull align 8 dereferenceable(32) %0, ptr noundef nonnull @.str.1, ptr noundef nonnull align 1 dereferenceable(1) %7)
          to label %20 unwind label %21

20:                                               ; preds = %19
  call void @_ZNSaIcED1Ev(ptr noundef nonnull align 1 dereferenceable(1) %7) #18
  br label %34

21:                                               ; preds = %19
  %22 = landingpad { ptr, i32 }
          cleanup
  br label %common.resume

23:                                               ; preds = %_ZN11StringUtils13ignore_spacesERKNSt7__cxx1112basic_stringIcSt11char_traitsIcESaIcEEERm.exit
  %24 = add i64 %.0, 1
  call void @llvm.lifetime.start.p0(i64 1, ptr nonnull %5)
  %25 = tail call noundef i64 @_ZNKSt7__cxx1112basic_stringIcSt11char_traitsIcESaIcEE13find_first_ofEcm(ptr noundef nonnull align 8 dereferenceable(32) %1, i8 noundef signext %3, i64 noundef %24) #18, !noalias !7
  %26 = icmp eq i64 %25, -1
  %27 = icmp eq i64 %25, %24
  %or.cond = or i1 %26, %27
  br i1 %or.cond, label %28, label %32

28:                                               ; preds = %23
  call void @_ZNSaIcEC1Ev(ptr noundef nonnull align 1 dereferenceable(1) %5) #18, !noalias !7
  invoke void @_ZNSt7__cxx1112basic_stringIcSt11char_traitsIcESaIcEEC1EPKcRKS3_(ptr noundef nonnull align 8 dereferenceable(32) %0, ptr noundef nonnull @.str.1, ptr noundef nonnull align 1 dereferenceable(1) %5)
          to label %29 unwind label %30

29:                                               ; preds = %28
  call void @_ZNSaIcED1Ev(ptr noundef nonnull align 1 dereferenceable(1) %5) #18
  br label %_ZN11StringUtils20get_substring_beforeERKNSt7__cxx1112basic_stringIcSt11char_traitsIcESaIcEEERmc.exit

common.resume:                                    ; preds = %11, %21, %30
  %.sink = phi ptr [ %6, %11 ], [ %7, %21 ], [ %5, %30 ]
  %common.resume.op = phi { ptr, i32 } [ %12, %11 ], [ %22, %21 ], [ %31, %30 ]
  call void @_ZNSaIcED1Ev(ptr noundef nonnull align 1 dereferenceable(1) %.sink) #18
  resume { ptr, i32 } %common.resume.op

30:                                               ; preds = %28
  %31 = landingpad { ptr, i32 }
          cleanup
  br label %common.resume

32:                                               ; preds = %23
  %33 = sub i64 %25, %24
  tail call void @_ZNKSt7__cxx1112basic_stringIcSt11char_traitsIcESaIcEE6substrEmm(ptr dead_on_unwind writable sret(%"class.std::__cxx11::basic_string") align 8 %0, ptr noundef nonnull align 8 dereferenceable(32) %1, i64 noundef %24, i64 noundef %33)
  br label %_ZN11StringUtils20get_substring_beforeERKNSt7__cxx1112basic_stringIcSt11char_traitsIcESaIcEEERmc.exit

_ZN11StringUtils20get_substring_beforeERKNSt7__cxx1112basic_stringIcSt11char_traitsIcESaIcEEERmc.exit: ; preds = %29, %32
  call void @llvm.lifetime.end.p0(i64 1, ptr nonnull %5)
  br label %34

34:                                               ; preds = %_ZN11StringUtils20get_substring_beforeERKNSt7__cxx1112basic_stringIcSt11char_traitsIcESaIcEEERmc.exit, %20, %10
  ret void
}